target datalayout = "e-m:e-p270:32:32-p271:32:32-p272:64:64-i64:64-i128:128-f80:128-n8:16:32:64-S128"
target triple = "x86_64-pc-linux-gnu"

@ett_bssmap_le_msg = internal global i32 0, align 4
@ett_gsm_bssmap_le_msg = internal global [14 x i32] zeroinitializer, align 16
@ett_gsm_bssmap_le_elem = hidden global [31 x i32] zeroinitializer, align 16
@.str.79 = private unnamed_addr constant [17 x i8] c"Lb-I/F BSSMAP LE\00", align 1
@.str.80 = private unnamed_addr constant [14 x i8] c"GSM BSSMAP LE\00", align 1
@.str.81 = private unnamed_addr constant [14 x i8] c"gsm_bssmap_le\00", align 1
@proto_bssmap_le = internal global i32 0, align 4
@bssmap_le_handle = internal global ptr null, align 8

; Function Attrs: null_pointer_is_valid sspstrong uwtable
define hidden void @proto_register_gsm_bssmap_le() #1 {
  %1 = alloca i32, align 4
  %2 = alloca i32, align 4
  %3 = alloca ptr, align 8
  %4 = alloca [46 x ptr], align 16
  call void @llvm.lifetime.start.p0(i64 4, ptr %1) #3
  call void @llvm.lifetime.start.p0(i64 4, ptr %2) #3
  call void @llvm.lifetime.start.p0(i64 8, ptr %3) #3
  call void @llvm.lifetime.start.p0(i64 368, ptr %4) #3
  %5 = getelementptr [46 x ptr], ptr %4, i64 0, i64 0
  store ptr @ett_bssmap_le_msg, ptr %5, align 16
  store i32 1, ptr %2, align 4
  store i32 0, ptr %1, align 4
  br label %6

6:                                                ; preds = %17, %0
  %7 = load i32, ptr %1, align 4
  %8 = zext i32 %7 to i64
  %9 = icmp ult i64 %8, 14
  br i1 %9, label %10, label %22

10:                                               ; preds = %6
  %11 = load i32, ptr %1, align 4
  %12 = zext i32 %11 to i64
  %13 = getelementptr [14 x i32], ptr @ett_gsm_bssmap_le_msg, i64 0, i64 %12
  %14 = load i32, ptr %2, align 4
  %15 = zext i32 %14 to i64
  %16 = getelementptr [46 x ptr], ptr %4, i64 0, i64 %15
  store ptr %13, ptr %16, align 8
  br label %17

17:                                               ; preds = %10
  %18 = load i32, ptr %1, align 4
  %19 = add i32 %18, 1
  store i32 %19, ptr %1, align 4
  %20 = load i32, ptr %2, align 4
  %21 = add i32 %20, 1
  store i32 %21, ptr %2, align 4
  br label %6, !llvm.loop !8

22:                                               ; preds = %6
  store i32 0, ptr %1, align 4
  br label %23

23:                                               ; preds = %34, %22
  %24 = load i32, ptr %1, align 4
  %25 = zext i32 %24 to i64
  %26 = icmp ult i64 %25, 31
  br i1 %26, label %27, label %39

27:                                               ; preds = %23
  %28 = load i32, ptr %1, align 4
  %29 = zext i32 %28 to i64
  %30 = getelementptr [31 x i32], ptr @ett_gsm_bssmap_le_elem, i64 0, i64 %29
  %31 = load i32, ptr %2, align 4
  %32 = zext i32 %31 to i64
  %33 = getelementptr [46 x ptr], ptr %4, i64 0, i64 %32
  store ptr %30, ptr %33, align 8
  br label %34

34:                                               ; preds = %27
  %35 = load i32, ptr %1, align 4
  %36 = add i32 %35, 1
  store i32 %36, ptr %1, align 4
  %37 = load i32, ptr %2, align 4
  %38 = add i32 %37, 1
  store i32 %38, ptr %2, align 4
  br label %23, !llvm.loop !9

39:                                               ; preds = %23
  %40 = call i32 @proto_register_protocol(ptr noundef @.str.79, ptr noundef @.str.80, ptr noundef @.str.81)
  store i32 %40, ptr @proto_bssmap_le, align 4
  %41 = load i32, ptr @proto_bssmap_le, align 4
  call void @proto_register_field_array(i32 noundef %41, ptr noundef @proto_register_gsm_bssmap_le.hf, i32 noundef 36)
  %42 = getelementptr inbounds [46 x ptr], ptr %4, i64 0, i64 0
  call void @proto_register_subtree_array(ptr noundef %42, i32 noundef 46)
  %43 = load i32, ptr @proto_bssmap_le, align 4
  %44 = call ptr @expert_register_protocol(i32 noundef %43)
  store ptr %44, ptr %3, align 8
  %45 = load ptr, ptr %3, align 8
  call void @expert_register_field_array(ptr noundef %45, ptr noundef @proto_register_gsm_bssmap_le.ei, i32 noundef 3)
  %46 = load i32, ptr @proto_bssmap_le, align 4
  %47 = call ptr @register_dissector(ptr noundef @.str.81, ptr noundef @dissect_bssmap_le, i32 noundef %46)
  store ptr %47, ptr @bssmap_le_handle, align 8
  call void @llvm.lifetime.end.p0(i64 368, ptr %4) #3
  call void @llvm.lifetime.end.p0(i64 8, ptr %3) #3
  call void @llvm.lifetime.end.p0(i64 4, ptr %2) #3
  call void @llvm.lifetime.end.p0(i64 4, ptr %1) #3
  ret void
}