; Function Attrs: null_pointer_is_valid sspstrong uwtable
define hidden void @proto_register_gsm_bssmap_le() local_unnamed_addr #1 {
  %1 = alloca [46 x ptr], align 16
  call void @llvm.lifetime.start.p0(i64 368, ptr nonnull %1) #3
  store ptr @ett_bssmap_le_msg, ptr %1, align 16
  br label %2

2:                                                ; preds = %0, %2
  %indvars.iv18 = phi i64 [ 1, %0 ], [ %indvars.iv.next19, %2 ]
  %indvars.iv = phi i64 [ 0, %0 ], [ %indvars.iv.next, %2 ]
  %3 = getelementptr [14 x i32], ptr @ett_gsm_bssmap_le_msg, i64 0, i64 %indvars.iv
  %4 = getelementptr [46 x ptr], ptr %1, i64 0, i64 %indvars.iv18
  store ptr %3, ptr %4, align 8
  %indvars.iv.next = add nuw nsw i64 %indvars.iv, 1
  %indvars.iv.next19 = add nuw nsw i64 %indvars.iv18, 1
  %exitcond.not = icmp eq i64 %indvars.iv.next, 14
  br i1 %exitcond.not, label %.preheader, label %2, !llvm.loop !8

.preheader:                                       ; preds = %2, %.preheader
  %indvars.iv25 = phi i64 [ %indvars.iv.next26, %.preheader ], [ 15, %2 ]
  %indvars.iv23 = phi i64 [ %indvars.iv.next24, %.preheader ], [ 0, %2 ]
  %5 = getelementptr [31 x i32], ptr @ett_gsm_bssmap_le_elem, i64 0, i64 %indvars.iv23
  %6 = getelementptr [46 x ptr], ptr %1, i64 0, i64 %indvars.iv25
  store ptr %5, ptr %6, align 8
  %indvars.iv.next24 = add nuw nsw i64 %indvars.iv23, 1
  %indvars.iv.next26 = add nuw nsw i64 %indvars.iv25, 1
  %exitcond30.not = icmp eq i64 %indvars.iv.next24, 31
  br i1 %exitcond30.not, label %7, label %.preheader, !llvm.loop !9

7:                                                ; preds = %.preheader
  %8 = tail call i32 @proto_register_protocol(ptr noundef nonnull @.str.79, ptr noundef nonnull @.str.80, ptr noundef nonnull @.str.81)
  store i32 %8, ptr @proto_bssmap_le, align 4
  tail call void @proto_register_field_array(i32 noundef %8, ptr noundef nonnull @proto_register_gsm_bssmap_le.hf, i32 noundef 36)
  call void @proto_register_subtree_array(ptr noundef nonnull %1, i32 noundef 46)
  %9 = load i32, ptr @proto_bssmap_le, align 4
  %10 = call ptr @expert_register_protocol(i32 noundef %9)
  call void @expert_register_field_array(ptr noundef %10, ptr noundef nonnull @proto_register_gsm_bssmap_le.ei, i32 noundef 3)
  %11 = load i32, ptr @proto_bssmap_le, align 4
  %12 = call ptr @register_dissector(ptr noundef nonnull @.str.81, ptr noundef nonnull @dissect_bssmap_le, i32 noundef %11)
  store ptr %12, ptr @bssmap_le_handle, align 8
  call void @llvm.lifetime.end.p0(i64 368, ptr nonnull %1) #3
  ret void
}